; Function Attrs: nounwind uwtable
define internal fastcc noundef i32 @_fix_runaway_jobs(ptr noundef %0, ptr readonly captures(none) %.8.val, ptr noundef writeonly captures(none) initializes((0, 8)) %1) unnamed_addr #0 {
  %3 = load ptr, ptr %0, align 8
  %4 = getelementptr inbounds nuw i8, ptr %3, i64 8
  %5 = load i32, ptr %4, align 8
  %6 = icmp eq i32 %5, 0
  %7 = load i32, ptr getelementptr inbounds nuw (i8, ptr @slurm_conf, i64 1152), align 8
  %8 = icmp eq i32 %5, %7
  %or.cond.i = select i1 %6, i1 true, i1 %8
  br i1 %or.cond.i, label %_validate_operator.exit.thread, label %_validate_operator.exit

_validate_operator.exit:                          ; preds = %2
  %9 = tail call i32 @assoc_mgr_get_admin_level(ptr noundef nonnull %0, i32 noundef %5) #10
  %10 = icmp ugt i32 %9, 1
  br i1 %10, label %_validate_operator.exit._validate_operator.exit.thread_crit_edge, label %.thread

_validate_operator.exit._validate_operator.exit.thread_crit_edge: ; preds = %_validate_operator.exit
  %.pre = load ptr, ptr %0, align 8
  %.phi.trans.insert = getelementptr inbounds nuw i8, ptr %.pre, i64 8
  %.pre5 = load i32, ptr %.phi.trans.insert, align 8
  br label %_validate_operator.exit.thread

_validate_operator.exit.thread:                   ; preds = %_validate_operator.exit._validate_operator.exit.thread_crit_edge, %2
  %11 = phi i32 [ %.pre5, %_validate_operator.exit._validate_operator.exit.thread_crit_edge ], [ %5, %2 ]
  %12 = getelementptr inbounds nuw i8, ptr %0, i64 56
  %13 = load ptr, ptr %12, align 8
  %14 = load ptr, ptr %.8.val, align 8
  %15 = tail call i32 @acct_storage_g_fix_runaway_jobs(ptr noundef %13, i32 noundef %11, ptr noundef %14) #10
  %16 = icmp eq i32 %15, 2002
  br i1 %16, label %.thread, label %21

.thread:                                          ; preds = %_validate_operator.exit, %_validate_operator.exit.thread
  %17 = load ptr, ptr %0, align 8
  %18 = getelementptr inbounds nuw i8, ptr %17, i64 60
  %19 = load i32, ptr %18, align 4
  %20 = tail call i32 (ptr, ...) @error(ptr noundef nonnull @.str.16, i32 noundef %19, ptr noundef nonnull @.str.72) #10
  br label %21

21:                                               ; preds = %.thread, %_validate_operator.exit.thread
  %.0123 = phi i32 [ 2002, %.thread ], [ %15, %_validate_operator.exit.thread ]
  %.0 = phi ptr [ @.str.72, %.thread ], [ null, %_validate_operator.exit.thread ]
  %22 = load ptr, ptr %0, align 8
  %23 = tail call ptr @slurm_persist_make_rc_msg(ptr noundef %22, i32 noundef %.0123, ptr noundef %.0, i16 noundef zeroext 1488) #10
  store ptr %23, ptr %1, align 8
  ret i32 %.0123
}